target datalayout = "e-m:e-p270:32:32-p271:32:32-p272:64:64-i64:64-i128:128-f80:128-n8:16:32:64-S128"
target triple = "x86_64-pc-linux-gnu"

%struct.nstime_t = type { i64, i32 }
%struct._packet_info = type { ptr, ptr, i32, i32, %struct.nstime_t, %struct.nstime_t, %struct.nstime_t, i8, ptr, ptr, ptr, ptr, %struct._address, %struct._address, %struct._address, %struct._address, %struct._address, %struct._address, i32, ptr, i8, [3 x i8], %struct.anon, i32, i32, i32, i32, ptr, i8, ptr, ptr, i16, i16, i32, i32, i16, i32, i32, ptr, ptr, ptr, i8, i8, i16, i16, i16, i32, i16, i16, ptr, ptr, ptr, ptr, ptr, i32, i32 }
%struct._address = type { i32, i32, ptr, ptr }
%struct.anon = type { i8, [3 x i8] }

@hf_nlm_lock = internal global i32 0, align 4
@hf_nlm_lock_caller_name = internal global i32 0, align 4
@hf_nlm_lock_owner = internal global i32 0, align 4
@hf_nlm_lock_svid = internal global i32 0, align 4
@hf_nlm_lock_l_offset64 = internal global i32 0, align 4
@hf_nlm_lock_l_offset = internal global i32 0, align 4
@hf_nlm_lock_l_len64 = internal global i32 0, align 4
@hf_nlm_lock_l_len = internal global i32 0, align 4
@ett_nlm_lock = internal global i32 0, align 4
@.str.112 = private unnamed_addr constant [3 x i8] c"fh\00", align 1
@.str.113 = private unnamed_addr constant [11 x i8] c" FH:0x%08x\00", align 1
@.str.114 = private unnamed_addr constant [9 x i8] c" svid:%d\00", align 1
@.str.115 = private unnamed_addr constant [13 x i8] c" pos:%lu-%lu\00", align 1

; Function Attrs: null_pointer_is_valid sspstrong uwtable
define internal i32 @dissect_lock(ptr noundef %0, ptr noundef %1, ptr noundef %2, i32 noundef %3, i32 noundef %4, ptr noundef %5) #0 {
  %7 = alloca ptr, align 8
  %8 = alloca ptr, align 8
  %9 = alloca ptr, align 8
  %10 = alloca i32, align 4
  %11 = alloca i32, align 4
  %12 = alloca ptr, align 8
  %13 = alloca ptr, align 8
  %14 = alloca ptr, align 8
  %15 = alloca i32, align 4
  %16 = alloca i32, align 4
  %17 = alloca i64, align 8
  %18 = alloca i64, align 8
  store ptr %0, ptr %7, align 8
  store ptr %1, ptr %8, align 8
  store ptr %2, ptr %9, align 8
  store i32 %3, ptr %10, align 4
  store i32 %4, ptr %11, align 4
  store ptr %5, ptr %12, align 8
  call void @llvm.lifetime.start.p0(i64 8, ptr %13) #8
  store ptr null, ptr %13, align 8
  call void @llvm.lifetime.start.p0(i64 8, ptr %14) #8
  store ptr null, ptr %14, align 8
  call void @llvm.lifetime.start.p0(i64 4, ptr %15) #8
  call void @llvm.lifetime.start.p0(i64 4, ptr %16) #8
  call void @llvm.lifetime.start.p0(i64 8, ptr %17) #8
  store i64 0, ptr %17, align 8
  call void @llvm.lifetime.start.p0(i64 8, ptr %18) #8
  store i64 0, ptr %18, align 8
  %19 = load ptr, ptr %9, align 8
  %20 = icmp ne ptr %19, null
  br i1 %20, label %21, label %34

21:                                               ; preds = %6
  %22 = load ptr, ptr %9, align 8
  %23 = load i32, ptr @hf_nlm_lock, align 4
  %24 = load ptr, ptr %7, align 8
  %25 = load i32, ptr %11, align 4
  %26 = call ptr @proto_tree_add_item(ptr noundef %22, i32 noundef %23, ptr noundef %24, i32 noundef %25, i32 noundef -1, i32 noundef 0)
  store ptr %26, ptr %13, align 8
  %27 = load ptr, ptr %13, align 8
  %28 = icmp ne ptr %27, null
  br i1 %28, label %29, label %33

29:                                               ; preds = %21
  %30 = load ptr, ptr %13, align 8
  %31 = load i32, ptr @ett_nlm_lock, align 4
  %32 = call ptr @proto_item_add_subtree(ptr noundef %30, i32 noundef %31)
  store ptr %32, ptr %14, align 8
  br label %33

33:                                               ; preds = %29, %21
  br label %34

34:                                               ; preds = %33, %6
  %35 = load ptr, ptr %7, align 8
  %36 = load ptr, ptr %14, align 8
  %37 = load i32, ptr @hf_nlm_lock_caller_name, align 4
  %38 = load i32, ptr %11, align 4
  %39 = call i32 @dissect_rpc_string(ptr noundef %35, ptr noundef %36, i32 noundef %37, i32 noundef %38, ptr noundef null)
  store i32 %39, ptr %11, align 4
  %40 = load ptr, ptr %7, align 8
  %41 = load i32, ptr %11, align 4
  %42 = load ptr, ptr %8, align 8
  %43 = load ptr, ptr %14, align 8
  %44 = load ptr, ptr %12, align 8
  %45 = call i32 @dissect_nfs3_fh(ptr noundef %40, i32 noundef %41, ptr noundef %42, ptr noundef %43, ptr noundef @.str.112, ptr noundef %15, ptr noundef %44)
  store i32 %45, ptr %11, align 4
  %46 = load ptr, ptr %8, align 8
  %47 = getelementptr inbounds nuw %struct._packet_info, ptr %46, i32 0, i32 1
  %48 = load ptr, ptr %47, align 8
  %49 = load i32, ptr %15, align 4
  call void (ptr, i32, ptr, ...) @col_append_fstr(ptr noundef %48, i32 noundef 25, ptr noundef @.str.113, i32 noundef %49)
  %50 = load ptr, ptr %7, align 8
  %51 = load ptr, ptr %14, align 8
  %52 = load i32, ptr @hf_nlm_lock_owner, align 4
  %53 = load i32, ptr %11, align 4
  %54 = call i32 @dissect_rpc_data(ptr noundef %50, ptr noundef %51, i32 noundef %52, i32 noundef %53)
  store i32 %54, ptr %11, align 4
  %55 = load ptr, ptr %7, align 8
  %56 = load i32, ptr %11, align 4
  %57 = call i32 @tvb_get_ntohl(ptr noundef %55, i32 noundef %56)
  store i32 %57, ptr %16, align 4
  %58 = load ptr, ptr %7, align 8
  %59 = load ptr, ptr %14, align 8
  %60 = load i32, ptr @hf_nlm_lock_svid, align 4
  %61 = load i32, ptr %11, align 4
  %62 = call i32 @dissect_rpc_uint32(ptr noundef %58, ptr noundef %59, i32 noundef %60, i32 noundef %61)
  store i32 %62, ptr %11, align 4
  %63 = load ptr, ptr %8, align 8
  %64 = getelementptr inbounds nuw %struct._packet_info, ptr %63, i32 0, i32 1
  %65 = load ptr, ptr %64, align 8
  %66 = load i32, ptr %16, align 4
  call void (ptr, i32, ptr, ...) @col_append_fstr(ptr noundef %65, i32 noundef 25, ptr noundef @.str.114, i32 noundef %66)
  %67 = load i32, ptr %10, align 4
  %68 = icmp eq i32 %67, 4
  br i1 %68, label %69, label %86

69:                                               ; preds = %34
  %70 = load ptr, ptr %7, align 8
  %71 = load i32, ptr %11, align 4
  %72 = call i64 @tvb_get_ntoh64(ptr noundef %70, i32 noundef %71)
  store i64 %72, ptr %17, align 8
  %73 = load ptr, ptr %7, align 8
  %74 = load ptr, ptr %14, align 8
  %75 = load i32, ptr @hf_nlm_lock_l_offset64, align 4
  %76 = load i32, ptr %11, align 4
  %77 = call i32 @dissect_rpc_uint64(ptr noundef %73, ptr noundef %74, i32 noundef %75, i32 noundef %76)
  store i32 %77, ptr %11, align 4
  %78 = load ptr, ptr %7, align 8
  %79 = load i32, ptr %11, align 4
  %80 = call i64 @tvb_get_ntoh64(ptr noundef %78, i32 noundef %79)
  store i64 %80, ptr %18, align 8
  %81 = load ptr, ptr %7, align 8
  %82 = load ptr, ptr %14, align 8
  %83 = load i32, ptr @hf_nlm_lock_l_len64, align 4
  %84 = load i32, ptr %11, align 4
  %85 = call i32 @dissect_rpc_uint64(ptr noundef %81, ptr noundef %82, i32 noundef %83, i32 noundef %84)
  store i32 %85, ptr %11, align 4
  br label %105

86:                                               ; preds = %34
  %87 = load ptr, ptr %7, align 8
  %88 = load i32, ptr %11, align 4
  %89 = call i32 @tvb_get_ntohl(ptr noundef %87, i32 noundef %88)
  %90 = zext i32 %89 to i64
  store i64 %90, ptr %17, align 8
  %91 = load ptr, ptr %7, align 8
  %92 = load ptr, ptr %14, align 8
  %93 = load i32, ptr @hf_nlm_lock_l_offset, align 4
  %94 = load i32, ptr %11, align 4
  %95 = call i32 @dissect_rpc_uint32(ptr noundef %91, ptr noundef %92, i32 noundef %93, i32 noundef %94)
  store i32 %95, ptr %11, align 4
  %96 = load ptr, ptr %7, align 8
  %97 = load i32, ptr %11, align 4
  %98 = call i32 @tvb_get_ntohl(ptr noundef %96, i32 noundef %97)
  %99 = zext i32 %98 to i64
  store i64 %99, ptr %18, align 8
  %100 = load ptr, ptr %7, align 8
  %101 = load ptr, ptr %14, align 8
  %102 = load i32, ptr @hf_nlm_lock_l_len, align 4
  %103 = load i32, ptr %11, align 4
  %104 = call i32 @dissect_rpc_uint32(ptr noundef %100, ptr noundef %101, i32 noundef %102, i32 noundef %103)
  store i32 %104, ptr %11, align 4
  br label %105

105:                                              ; preds = %86, %69
  %106 = load ptr, ptr %8, align 8
  %107 = getelementptr inbounds nuw %struct._packet_info, ptr %106, i32 0, i32 1
  %108 = load ptr, ptr %107, align 8
  %109 = load i64, ptr %17, align 8
  %110 = load i64, ptr %18, align 8
  call void (ptr, i32, ptr, ...) @col_append_fstr(ptr noundef %108, i32 noundef 25, ptr noundef @.str.115, i64 noundef %109, i64 noundef %110)
  %111 = load i32, ptr %11, align 4
  call void @llvm.lifetime.end.p0(i64 8, ptr %18) #8
  call void @llvm.lifetime.end.p0(i64 8, ptr %17) #8
  call void @llvm.lifetime.end.p0(i64 4, ptr %16) #8
  call void @llvm.lifetime.end.p0(i64 4, ptr %15) #8
  call void @llvm.lifetime.end.p0(i64 8, ptr %14) #8
  call void @llvm.lifetime.end.p0(i64 8, ptr %13) #8
  ret i32 %111
}