; Function Attrs: null_pointer_is_valid sspstrong uwtable
define internal fastcc i32 @dissect_lock(ptr noundef %0, ptr noundef %1, ptr noundef %2, i32 noundef range(i32 1, 5) %3, i32 noundef %4, ptr noundef %5) unnamed_addr #0 {
  %7 = alloca i32, align 4
  call void @llvm.lifetime.start.p0(i64 4, ptr nonnull %7) #10
  %.not = icmp eq ptr %2, null
  br i1 %.not, label %14, label %8

8:                                                ; preds = %6
  %9 = load i32, ptr @hf_nlm_lock, align 4
  %10 = tail call ptr @proto_tree_add_item(ptr noundef nonnull %2, i32 noundef %9, ptr noundef %0, i32 noundef %4, i32 noundef -1, i32 noundef 0)
  %.not54 = icmp eq ptr %10, null
  br i1 %.not54, label %14, label %11

11:                                               ; preds = %8
  %12 = load i32, ptr @ett_nlm_lock, align 4
  %13 = tail call ptr @proto_item_add_subtree(ptr noundef nonnull %10, i32 noundef %12)
  br label %14

14:                                               ; preds = %8, %11, %6
  %.051 = phi ptr [ %13, %11 ], [ null, %8 ], [ null, %6 ]
  %15 = load i32, ptr @hf_nlm_lock_caller_name, align 4
  %16 = tail call i32 @dissect_rpc_string(ptr noundef %0, ptr noundef %.051, i32 noundef %15, i32 noundef %4, ptr noundef null)
  %17 = call i32 @dissect_nfs3_fh(ptr noundef %0, i32 noundef %16, ptr noundef %1, ptr noundef %.051, ptr noundef nonnull @.str.112, ptr noundef nonnull %7, ptr noundef %5)
  %18 = getelementptr inbounds nuw i8, ptr %1, i64 8
  %19 = load ptr, ptr %18, align 8
  %20 = load i32, ptr %7, align 4
  call void (ptr, i32, ptr, ...) @col_append_fstr(ptr noundef %19, i32 noundef 25, ptr noundef nonnull @.str.113, i32 noundef %20)
  %21 = load i32, ptr @hf_nlm_lock_owner, align 4
  %22 = call i32 @dissect_rpc_data(ptr noundef %0, ptr noundef %.051, i32 noundef %21, i32 noundef %17)
  %23 = call i32 @tvb_get_ntohl(ptr noundef %0, i32 noundef %22)
  %24 = load i32, ptr @hf_nlm_lock_svid, align 4
  %25 = call i32 @dissect_rpc_uint32(ptr noundef %0, ptr noundef %.051, i32 noundef %24, i32 noundef %22)
  %26 = load ptr, ptr %18, align 8
  call void (ptr, i32, ptr, ...) @col_append_fstr(ptr noundef %26, i32 noundef 25, ptr noundef nonnull @.str.114, i32 noundef %23)
  %27 = icmp eq i32 %3, 4
  br i1 %27, label %28, label %35

28:                                               ; preds = %14
  %29 = call i64 @tvb_get_ntoh64(ptr noundef %0, i32 noundef %25)
  %30 = load i32, ptr @hf_nlm_lock_l_offset64, align 4
  %31 = call i32 @dissect_rpc_uint64(ptr noundef %0, ptr noundef %.051, i32 noundef %30, i32 noundef %25)
  %32 = call i64 @tvb_get_ntoh64(ptr noundef %0, i32 noundef %31)
  %33 = load i32, ptr @hf_nlm_lock_l_len64, align 4
  %34 = call i32 @dissect_rpc_uint64(ptr noundef %0, ptr noundef %.051, i32 noundef %33, i32 noundef %31)
  br label %44

35:                                               ; preds = %14
  %36 = call i32 @tvb_get_ntohl(ptr noundef %0, i32 noundef %25)
  %37 = zext i32 %36 to i64
  %38 = load i32, ptr @hf_nlm_lock_l_offset, align 4
  %39 = call i32 @dissect_rpc_uint32(ptr noundef %0, ptr noundef %.051, i32 noundef %38, i32 noundef %25)
  %40 = call i32 @tvb_get_ntohl(ptr noundef %0, i32 noundef %39)
  %41 = zext i32 %40 to i64
  %42 = load i32, ptr @hf_nlm_lock_l_len, align 4
  %43 = call i32 @dissect_rpc_uint32(ptr noundef %0, ptr noundef %.051, i32 noundef %42, i32 noundef %39)
  br label %44

44:                                               ; preds = %35, %28
  %.050 = phi i32 [ %34, %28 ], [ %43, %35 ]
  %.049 = phi i64 [ %29, %28 ], [ %37, %35 ]
  %.0 = phi i64 [ %32, %28 ], [ %41, %35 ]
  %45 = load ptr, ptr %18, align 8
  call void (ptr, i32, ptr, ...) @col_append_fstr(ptr noundef %45, i32 noundef 25, ptr noundef nonnull @.str.115, i64 noundef %.049, i64 noundef %.0)
  call void @llvm.lifetime.end.p0(i64 4, ptr nonnull %7) #10
  ret i32 %.050
}